Certificate:
    Data:
        Version: 3 (0x2)
        Serial Number: 2 (0x2)
        Signature Algorithm: sha256WithRSAEncryption
        Issuer: 
        Validity
            Not Before: Dec 17 09:01:41 2015 GMT
            Not After : Dec 14 09:01:41 2025 GMT
        Subject: CN=vault.example.com
        Subject Public Key Info:
            Public Key Algorithm: rsaEncryption
            RSA Public Key: (1024 bit)
                Modulus (1024 bit):
                    00:b1:4f:02:1c:66:6c:7e:ae:bb:80:dd:51:2f:91:
                    67:cc:4b:95:0d:66:3d:55:87:22:03:b1:dd:84:1d:
                    11:31:62:ed:23:1f:fb:91:8a:8f:a2:34:cd:bc:80:
                    7d:15:26:90:88:0c:f1:22:ba:ea:66:a4:bc:44:7b:
                    dc:66:95:e6:06:49:64:94:31:e0:0b:b0:00:7f:ee:
                    6e:ae:78:59:d6:9f:cc:e5:6f:57:b5:be:2d:53:eb:
                    4f:48:79:1d:be:b7:3d:76:da:d4:cd:83:3e:a7:df:
                    3d:3e:3d:d7:45:c8:b9:83:1c:6a:80:29:db:ce:c7:
                    3a:73:c5:8d:82:f8:8f:42:eb
                Exponent: 65537 (0x10001)
        X509v3 extensions:
            X509v3 Basic Constraints: 
                CA:FALSE
            X509v3 Key Usage: 
                Digital Signature, Key Encipherment
            X509v3 Extended Key Usage: 
                TLS Web Client Authentication, TLS Web Server Authentication
    Signature Algorithm: sha256WithRSAEncryption
        c6:cf:ce:74:e8:77:82:93:fe:ed:0c:49:2d:9b:12:a5:81:c1:
        a2:36:f7:29:cc:6a:eb:2b:0c:9d:71:96:af:e1:22:34:e7:6b:
        dd:f1:7c:58:a6:d8:06:be:a3:3c:ab:6e:06:a4:cd:8c:c4:fd:
        f8:9c:28:db:0c:20:d5:86:68:9b:4c:c8:54:bb:70:10:0a:88:
        41:6e:ff:79:4a:0e:65:eb:90:44:ae:d9:75:65:b9:74:01:dd:
        a4:69:74:7e:e9:d0:4c:54:08:60:d8:85:c5:b9:0e:8d:95:a5:
        9f:8f:87:4a:11:53:ba:97:d8:91:1e:f0:7e:4b:38:45:90:c3:
        82:b2:09:05:cb:68:66:27:cb:cb:75:32:d4:fa:46:ef:d4:8d:
        07:9a:e4:43:19:95:53:da:5d:43:0d:2f:ca:81:65:50:90:3d:
        e9:af:3d:12:5b:5c:a0:5d:70:a9:7a:da:c0:57:13:f4:68:61:
        b3:23:43:db:44:80:da:38:ce:c9:f4:39:e1:d9:66:cd:e7:08:
        9d:07:c6:b7:0e:75:75:09:e9:f2:03:77:c0:44:65:c4:45:13:
        55:bb:3a:aa:02:c5:28:5f:ff:f4:e4:10:fc:7c:a4:88:da:5a:
        f2:1f:93:7b:37:d4:88:34:06:28:b5:d8:d0:90:0e:3a:c0:9b:
        62:15:98:d7
-----BEGIN CERTIFICATE-----
MIICTDCCATSgAwIBAgIBAjANBgkqhkiG9w0BAQsFADAAMB4XDTE1MTIxNzA5MDE0
MVoXDTI1MTIxNDA5MDE0MVowHDEaMBgGA1UEAwwRdmF1bHQuZXhhbXBsZS5jb20w
gZ8wDQYJKoZIhvcNAQEBBQADgY0AMIGJAoGBALFPAhxmbH6uu4DdUS+RZ8xLlQ1m
PVWHIgOx3YQdETFi7SMf+5GKj6I0zbyAfRUmkIgM8SK66makvER73GaV5gZJZJQx
4AuwAH/ubq54WdafzOVvV7W+LVPrT0h5Hb63PXba1M2DPqffPT4910XIuYMcaoAp
287HOnPFjYL4j0LrAgMBAAGjOTA3MAkGA1UdEwQCMAAwCwYDVR0PBAQDAgWgMB0G
A1UdJQQWMBQGCCsGAQUFBwMCBggrBgEFBQcDATANBgkqhkiG9w0BAQsFAAOCAQEA
xs/OdOh3gpP+7QxJLZsSpYHBojb3Kcxq6ysMnXGWr+EiNOdr3fF8WKbYBr6jPKtu
BqTNjMT9+Jwo2wwg1YZom0zIVLtwEAqIQW7/eUoOZeuQRK7ZdWW5dAHdpGl0funQ
TFQIYNiFxbkOjZWln4+HShFTupfYkR7wfks4RZDDgrIJBctoZifLy3Uy1PpG79SN
B5rkQxmVU9pdQw0vyoFlUJA96a89EltcoF1wqXrawFcT9GhhsyND20SA2jjOyfQ5
4dlmzecInQfGtw51dQnp8gN3wERlxEUTVbs6qgLFKF//9OQQ/HykiNpa8h+TezfU
iDQGKLXY0JAOOsCbYhWY1w==
-----END CERTIFICATE-----
